; Function Attrs: mustprogress nofree norecurse nosync nounwind willreturn memory(argmem: readwrite) uwtable
define dso_local void @nghttp2_buf_reset(ptr noundef captures(none) initializes((16, 40)) %0) local_unnamed_addr #4 {
  %2 = load ptr, ptr %0, align 8, !tbaa !10
  %3 = getelementptr inbounds nuw i8, ptr %0, i64 32
  store ptr %2, ptr %3, align 8, !tbaa !12
  %4 = getelementptr inbounds nuw i8, ptr %0, i64 24
  store ptr %2, ptr %4, align 8, !tbaa !11
  %5 = getelementptr inbounds nuw i8, ptr %0, i64 16
  store ptr %2, ptr %5, align 8, !tbaa !4
  ret void
}